target datalayout = "e-m:e-p270:32:32-p271:32:32-p272:64:64-i64:64-i128:128-f80:128-n8:16:32:64-S128"
target triple = "x86_64-unknown-linux-gnu"

; Function Attrs: nounwind sspstrong uwtable
define dso_local i32 @slow_bitmap_intersects(ptr noundef %bitmap1, ptr noundef %bitmap2, i64 noundef %bits) #0 {
entry:
  %retval = alloca i32, align 4
  %bitmap1.addr = alloca ptr, align 8
  %bitmap2.addr = alloca ptr, align 8
  %bits.addr = alloca i64, align 8
  %k = alloca i64, align 8
  %lim = alloca i64, align 8
  store ptr %bitmap1, ptr %bitmap1.addr, align 8
  store ptr %bitmap2, ptr %bitmap2.addr, align 8
  store i64 %bits, ptr %bits.addr, align 8
  %0 = load i64, ptr %bits.addr, align 8
  %div = udiv i64 %0, 64
  store i64 %div, ptr %lim, align 8
  store i64 0, ptr %k, align 8
  br label %for.cond

for.cond:                                         ; preds = %for.inc, %entry
  %1 = load i64, ptr %k, align 8
  %2 = load i64, ptr %lim, align 8
  %cmp = icmp slt i64 %1, %2
  br i1 %cmp, label %for.body, label %for.end

for.body:                                         ; preds = %for.cond
  %3 = load ptr, ptr %bitmap1.addr, align 8
  %4 = load i64, ptr %k, align 8
  %arrayidx = getelementptr i64, ptr %3, i64 %4
  %5 = load i64, ptr %arrayidx, align 8
  %6 = load ptr, ptr %bitmap2.addr, align 8
  %7 = load i64, ptr %k, align 8
  %arrayidx1 = getelementptr i64, ptr %6, i64 %7
  %8 = load i64, ptr %arrayidx1, align 8
  %and = and i64 %5, %8
  %tobool = icmp ne i64 %and, 0
  br i1 %tobool, label %if.then, label %if.end

if.then:                                          ; preds = %for.body
  store i32 1, ptr %retval, align 4
  br label %return

if.end:                                           ; preds = %for.body
  br label %for.inc

for.inc:                                          ; preds = %if.end
  %9 = load i64, ptr %k, align 8
  %inc = add i64 %9, 1
  store i64 %inc, ptr %k, align 8
  br label %for.cond, !llvm.loop !22

for.end:                                          ; preds = %for.cond
  %10 = load i64, ptr %bits.addr, align 8
  %rem = urem i64 %10, 64
  %tobool2 = icmp ne i64 %rem, 0
  br i1 %tobool2, label %if.then3, label %if.end12

if.then3:                                         ; preds = %for.end
  %11 = load ptr, ptr %bitmap1.addr, align 8
  %12 = load i64, ptr %k, align 8
  %arrayidx4 = getelementptr i64, ptr %11, i64 %12
  %13 = load i64, ptr %arrayidx4, align 8
  %14 = load ptr, ptr %bitmap2.addr, align 8
  %15 = load i64, ptr %k, align 8
  %arrayidx5 = getelementptr i64, ptr %14, i64 %15
  %16 = load i64, ptr %arrayidx5, align 8
  %and6 = and i64 %13, %16
  %17 = load i64, ptr %bits.addr, align 8
  %sub = sub i64 0, %17
  %and7 = and i64 %sub, 63
  %shr = lshr i64 -1, %and7
  %and8 = and i64 %and6, %shr
  %tobool9 = icmp ne i64 %and8, 0
  br i1 %tobool9, label %if.then10, label %if.end11

if.then10:                                        ; preds = %if.then3
  store i32 1, ptr %retval, align 4
  br label %return

if.end11:                                         ; preds = %if.then3
  br label %if.end12

if.end12:                                         ; preds = %if.end11, %for.end
  store i32 0, ptr %retval, align 4
  br label %return

return:                                           ; preds = %if.end12, %if.then10, %if.then
  %18 = load i32, ptr %retval, align 4
  ret i32 %18
}