; Function Attrs: nofree norecurse nosync nounwind sspstrong memory(argmem: read) uwtable
define dso_local range(i32 0, 2) i32 @slow_bitmap_intersects(ptr noundef readonly captures(none) %bitmap1, ptr noundef readonly captures(none) %bitmap2, i64 noundef %bits) local_unnamed_addr #0 {
entry:
  %div10 = lshr i64 %bits, 6
  %cmp12.not = icmp ult i64 %bits, 64
  br i1 %cmp12.not, label %for.end, label %for.body

for.body:                                         ; preds = %entry, %for.inc
  %k.013 = phi i64 [ %inc, %for.inc ], [ 0, %entry ]
  %arrayidx = getelementptr i64, ptr %bitmap1, i64 %k.013
  %0 = load i64, ptr %arrayidx, align 8
  %arrayidx1 = getelementptr i64, ptr %bitmap2, i64 %k.013
  %1 = load i64, ptr %arrayidx1, align 8
  %and = and i64 %1, %0
  %tobool.not = icmp eq i64 %and, 0
  br i1 %tobool.not, label %for.inc, label %return

for.inc:                                          ; preds = %for.body
  %inc = add nuw nsw i64 %k.013, 1
  %exitcond.not = icmp eq i64 %inc, %div10
  br i1 %exitcond.not, label %for.end, label %for.body, !llvm.loop !19

for.end:                                          ; preds = %for.inc, %entry
  %k.0.lcssa = phi i64 [ 0, %entry ], [ %div10, %for.inc ]
  %rem = and i64 %bits, 63
  %tobool2.not = icmp eq i64 %rem, 0
  br i1 %tobool2.not, label %if.end12, label %if.then3

if.then3:                                         ; preds = %for.end
  %arrayidx4 = getelementptr i64, ptr %bitmap1, i64 %k.0.lcssa
  %2 = load i64, ptr %arrayidx4, align 8
  %arrayidx5 = getelementptr i64, ptr %bitmap2, i64 %k.0.lcssa
  %3 = load i64, ptr %arrayidx5, align 8
  %sub = sub i64 0, %bits
  %and7 = and i64 %sub, 63
  %shr = lshr i64 -1, %and7
  %and6 = and i64 %2, %shr
  %and8 = and i64 %and6, %3
  %tobool9.not = icmp eq i64 %and8, 0
  br i1 %tobool9.not, label %if.end12, label %return

if.end12:                                         ; preds = %if.then3, %for.end
  br label %return

return:                                           ; preds = %for.body, %if.then3, %if.end12
  %retval.0 = phi i32 [ 0, %if.end12 ], [ 1, %if.then3 ], [ 1, %for.body ]
  ret i32 %retval.0
}